; Function Attrs: mustprogress uwtable
define void @_ZNK9pymeshlab17FunctionParameter11meshlabNameEv(ptr dead_on_unwind noalias nocapture writable writeonly sret(%class.QString) align 8 %0, ptr nocapture noundef nonnull readonly align 8 dereferenceable(16) %1) local_unnamed_addr #6 align 2 personality ptr @__gxx_personality_v0 {
  %3 = getelementptr inbounds i8, ptr %1, i64 8
  %4 = load ptr, ptr %3, align 8
  %5 = tail call noundef nonnull align 8 dereferenceable(8) ptr @_ZNK13RichParameter4nameEv(ptr noundef nonnull align 8 dereferenceable(56) %4)
  %6 = load ptr, ptr %5, align 8
  store ptr %6, ptr %0, align 8
  %7 = load atomic i32, ptr %6 monotonic, align 4
  %8 = add i32 %7, -1
  %or.cond.not.i.i = icmp ult i32 %8, -2
  br i1 %or.cond.not.i.i, label %9, label %_ZN7QStringC2ERKS_.exit

9:                                                ; preds = %2
  %10 = atomicrmw add ptr %6, i32 1 seq_cst, align 4
  br label %_ZN7QStringC2ERKS_.exit

_ZN7QStringC2ERKS_.exit:                          ; preds = %2, %9
  ret void
}